target datalayout = "e-m:e-p270:32:32-p271:32:32-p272:64:64-i64:64-i128:128-f80:128-n8:16:32:64-S128"
target triple = "x86_64-pc-linux-gnu"

@proto_register_stanag4607.ett = internal global [5 x ptr] [ptr @ett_4607_hdr, ptr @ett_4607_seg, ptr @ett_4607_rpt, ptr @ett_4607_mask, ptr @ett_4607_ver], align 16
@.str.315 = private unnamed_addr constant [26 x i8] c"STANAG 4607 (GMTI Format)\00", align 1
@.str.316 = private unnamed_addr constant [12 x i8] c"STANAG 4607\00", align 1
@.str.317 = private unnamed_addr constant [6 x i8] c"s4607\00", align 1
@proto_stanag4607 = internal global i32 0, align 4
@.str.318 = private unnamed_addr constant [11 x i8] c"stanag4607\00", align 1
@stanag4607_handle = internal global ptr null, align 8

; Function Attrs: null_pointer_is_valid sspstrong uwtable
define hidden void @proto_register_stanag4607() #0 {
  %1 = alloca ptr, align 8
  call void @llvm.lifetime.start.p0(i64 8, ptr %1) #4
  %2 = call i32 @proto_register_protocol(ptr noundef @.str.315, ptr noundef @.str.316, ptr noundef @.str.317)
  store i32 %2, ptr @proto_stanag4607, align 4
  %3 = load i32, ptr @proto_stanag4607, align 4
  call void @proto_register_field_array(i32 noundef %3, ptr noundef @proto_register_stanag4607.hf, i32 noundef 154)
  call void @proto_register_subtree_array(ptr noundef @proto_register_stanag4607.ett, i32 noundef 5)
  %4 = load i32, ptr @proto_stanag4607, align 4
  %5 = call ptr @expert_register_protocol(i32 noundef %4)
  store ptr %5, ptr %1, align 8
  %6 = load ptr, ptr %1, align 8
  call void @expert_register_field_array(ptr noundef %6, ptr noundef @proto_register_stanag4607.ei, i32 noundef 4)
  %7 = load i32, ptr @proto_stanag4607, align 4
  %8 = call ptr @register_dissector(ptr noundef @.str.318, ptr noundef @dissect_stanag4607, i32 noundef %7)
  store ptr %8, ptr @stanag4607_handle, align 8
  call void @llvm.lifetime.end.p0(i64 8, ptr %1) #4
  ret void
}